Certificate:
    Data:
        Version: 3 (0x2)
        Serial Number:
            f9:3c:87:54:7f:85:13:ed
        Signature Algorithm: sha1WithRSAEncryption
        Issuer: C=MX, ST=DF, O=Koitoercorp, OU=KoitoerUnit, CN=koitoer/emailAddress=koitoer.server@gmail.com
        Validity
            Not Before: Apr 23 01:40:15 2009 GMT
            Not After : Apr 22 01:40:15 2012 GMT
        Subject: C=MX, ST=DF, O=Koitoercorp, OU=KoitoerUnit, CN=koitoer/emailAddress=koitoer.server@gmail.com
        Subject Public Key Info:
            Public Key Algorithm: rsaEncryption
            RSA Public Key: (1024 bit)
                Modulus (1024 bit):
                    00:ca:c0:cd:7e:a7:89:24:07:a0:61:f1:a5:f7:e9:
                    01:b9:f5:54:2a:77:9c:49:dc:2d:a4:59:85:98:b8:
                    7b:9a:dd:1e:ba:e8:12:d6:69:24:4a:a0:7d:49:f5:
                    30:a0:71:8d:db:05:30:a1:2c:4d:d2:81:14:69:2e:
                    db:55:9d:86:8d:48:18:a7:3a:e0:40:41:89:0e:69:
                    9f:67:3d:6e:eb:38:39:a5:56:ea:7d:d0:4f:d6:f7:
                    2e:00:1a:7f:aa:0f:ca:da:65:ce:bb:31:55:84:3a:
                    d7:6c:67:35:54:14:00:e5:01:5f:11:e8:80:4e:67:
                    c4:41:81:98:81:be:f3:c9:c5
                Exponent: 65537 (0x10001)
        X509v3 extensions:
            X509v3 Subject Key Identifier: 
                51:D0:76:7C:E9:5D:FE:B9:63:6D:71:51:DE:3C:70:89:2C:9E:92:2E
            X509v3 Authority Key Identifier: 
                keyid:51:D0:76:7C:E9:5D:FE:B9:63:6D:71:51:DE:3C:70:89:2C:9E:92:2E
                DirName:/C=MX/ST=DF/O=Koitoercorp/OU=KoitoerUnit/CN=koitoer/emailAddress=koitoer.server@gmail.com
                serial:F9:3C:87:54:7F:85:13:ED

            X509v3 Basic Constraints: 
                CA:TRUE
    Signature Algorithm: sha1WithRSAEncryption
        c9:32:52:17:31:bf:86:3d:41:0f:bd:04:d3:09:e0:a7:ad:8a:
        2b:b7:04:17:a5:53:93:a6:65:70:da:3f:17:9d:2a:3d:3b:2d:
        e0:7e:bf:ba:ea:df:e2:32:c8:5e:30:a8:6e:19:1a:ed:07:61:
        4f:21:42:d0:dc:6f:97:ec:d5:da:6e:6d:64:7f:ac:6f:91:ad:
        8a:50:27:fb:61:59:fe:19:0e:5c:81:d8:d7:89:c3:2c:29:06:
        e4:a2:8c:99:1e:c9:30:9a:6d:5a:1f:e2:1d:40:55:7a:1d:f9:
        bb:7c:85:48:f4:a9:dd:45:34:bd:3c:68:ca:b2:a0:a0:6a:4d:
        aa:9a
-----BEGIN CERTIFICATE-----
MIIDbDCCAtWgAwIBAgIJAPk8h1R/hRPtMA0GCSqGSIb3DQEBBQUAMIGBMQswCQYD
VQQGEwJNWDELMAkGA1UECBMCREYxFDASBgNVBAoTC0tvaXRvZXJjb3JwMRQwEgYD
VQQLEwtLb2l0b2VyVW5pdDEQMA4GA1UEAxMHa29pdG9lcjEnMCUGCSqGSIb3DQEJ
ARYYa29pdG9lci5zZXJ2ZXJAZ21haWwuY29tMB4XDTA5MDQyMzAxNDAxNVoXDTEy
MDQyMjAxNDAxNVowgYExCzAJBgNVBAYTAk1YMQswCQYDVQQIEwJERjEUMBIGA1UE
ChMLS29pdG9lcmNvcnAxFDASBgNVBAsTC0tvaXRvZXJVbml0MRAwDgYDVQQDEwdr
b2l0b2VyMScwJQYJKoZIhvcNAQkBFhhrb2l0b2VyLnNlcnZlckBnbWFpbC5jb20w
gZ8wDQYJKoZIhvcNAQEBBQADgY0AMIGJAoGBAMrAzX6niSQHoGHxpffpAbn1VCp3
nEncLaRZhZi4e5rdHrroEtZpJEqgfUn1MKBxjdsFMKEsTdKBFGku21Wdho1IGKc6
4EBBiQ5pn2c9bus4OaVW6n3QT9b3LgAaf6oPytplzrsxVYQ612xnNVQUAOUBXxHo
gE5nxEGBmIG+88nFAgMBAAGjgekwgeYwHQYDVR0OBBYEFFHQdnzpXf65Y21xUd48
cIksnpIuMIG2BgNVHSMEga4wgauAFFHQdnzpXf65Y21xUd48cIksnpIuoYGHpIGE
MIGBMQswCQYDVQQGEwJNWDELMAkGA1UECBMCREYxFDASBgNVBAoTC0tvaXRvZXJj
b3JwMRQwEgYDVQQLEwtLb2l0b2VyVW5pdDEQMA4GA1UEAxMHa29pdG9lcjEnMCUG
CSqGSIb3DQEJARYYa29pdG9lci5zZXJ2ZXJAZ21haWwuY29tggkA+TyHVH+FE+0w
DAYDVR0TBAUwAwEB/zANBgkqhkiG9w0BAQUFAAOBgQDJMlIXMb+GPUEPvQTTCeCn
rYortwQXpVOTpmVw2j8XnSo9Oy3gfr+66t/iMsheMKhuGRrtB2FPIULQ3G+X7NXa
bm1kf6xvka2KUCf7YVn+GQ5cgdjXicMsKQbkooyZHskwmm1aH+IdQFV6Hfm7fIVI
9KndRTS9PGjKsqCgak2qmg==
-----END CERTIFICATE-----
