Certificate:
    Data:
        Version: 3 (0x2)
        Serial Number:
            f9:3c:87:54:7f:85:13:f0
        Signature Algorithm: sha1WithRSAEncryption
        Issuer: C=MX, ST=DF, O=Koitoercorp, OU=KoitoerUnit, CN=koitoer/emailAddress=koitoer.server@gmail.com
        Validity
            Not Before: Apr 23 02:32:06 2009 GMT
            Not After : Apr 23 02:32:06 2010 GMT
        Subject: C=MX, ST=DF, L=koitoerclient, O=koitoerclien, OU=sslclient, CN=ssl_client/emailAddress=koitoer.ssl.client@gmail.com
        Subject Public Key Info:
            Public Key Algorithm: rsaEncryption
            RSA Public Key: (1024 bit)
                Modulus (1024 bit):
                    00:cd:79:aa:43:16:e8:81:83:7f:e6:92:07:01:e1:
                    e4:1d:98:38:d8:6e:4b:cf:e4:7e:81:bb:c4:cd:71:
                    2c:45:87:11:4f:ac:99:d6:17:be:45:29:aa:d4:d1:
                    2b:c6:d5:4d:e4:04:c5:42:18:48:80:cf:09:11:a1:
                    b5:3d:0b:6d:78:00:24:4b:e5:52:6d:d8:2b:1a:d4:
                    a7:9e:b5:46:4c:e5:07:70:50:d0:68:af:b1:5a:9c:
                    f9:66:3b:c9:77:71:90:6e:39:0a:d9:36:7f:ea:fa:
                    b5:9c:70:0e:ea:15:eb:78:ea:a2:05:c9:a7:4c:3a:
                    58:7f:73:3e:26:db:34:c2:4b
                Exponent: 65537 (0x10001)
        X509v3 extensions:
            X509v3 Basic Constraints: 
                CA:FALSE
            Netscape Comment: 
                OpenSSL Generated Certificate
            X509v3 Subject Key Identifier: 
                14:E9:41:DD:2E:9C:71:AB:2C:63:4F:B1:F1:B3:75:E5:85:0E:46:06
            X509v3 Authority Key Identifier: 
                keyid:51:D0:76:7C:E9:5D:FE:B9:63:6D:71:51:DE:3C:70:89:2C:9E:92:2E

    Signature Algorithm: sha1WithRSAEncryption
        68:c8:bf:6a:0b:44:25:8f:af:ec:0d:01:5d:5b:88:57:35:da:
        4e:1b:53:c2:b1:c4:a0:79:12:76:71:0f:9c:c6:b7:25:f9:ef:
        d4:cc:ba:b4:b3:5f:78:b6:77:7c:04:5e:e4:0e:e6:c8:67:6f:
        4b:f4:9f:c3:c7:d0:d1:fb:6a:c3:39:16:e4:d9:37:8f:04:c8:
        03:80:fd:a8:dc:a3:42:e8:b8:1d:c5:59:06:44:17:74:ee:84:
        e9:8c:5e:e3:05:cb:a5:12:aa:f3:4e:5c:85:24:68:cc:3b:ae:
        bc:9d:eb:f1:16:34:ad:29:04:49:f3:0f:f8:57:24:e2:30:08:
        69:2f
-----BEGIN CERTIFICATE-----
MIIDGzCCAoSgAwIBAgIJAPk8h1R/hRPwMA0GCSqGSIb3DQEBBQUAMIGBMQswCQYD
VQQGEwJNWDELMAkGA1UECBMCREYxFDASBgNVBAoTC0tvaXRvZXJjb3JwMRQwEgYD
VQQLEwtLb2l0b2VyVW5pdDEQMA4GA1UEAxMHa29pdG9lcjEnMCUGCSqGSIb3DQEJ
ARYYa29pdG9lci5zZXJ2ZXJAZ21haWwuY29tMB4XDTA5MDQyMzAyMzIwNloXDTEw
MDQyMzAyMzIwNlowgZ8xCzAJBgNVBAYTAk1YMQswCQYDVQQIEwJERjEWMBQGA1UE
BxMNa29pdG9lcmNsaWVudDEVMBMGA1UEChMMa29pdG9lcmNsaWVuMRIwEAYDVQQL
Ewlzc2xjbGllbnQxEzARBgNVBAMMCnNzbF9jbGllbnQxKzApBgkqhkiG9w0BCQEW
HGtvaXRvZXIuc3NsLmNsaWVudEBnbWFpbC5jb20wgZ8wDQYJKoZIhvcNAQEBBQAD
gY0AMIGJAoGBAM15qkMW6IGDf+aSBwHh5B2YONhuS8/kfoG7xM1xLEWHEU+smdYX
vkUpqtTRK8bVTeQExUIYSIDPCRGhtT0LbXgAJEvlUm3YKxrUp561RkzlB3BQ0Giv
sVqc+WY7yXdxkG45Ctk2f+r6tZxwDuoV63jqogXJp0w6WH9zPibbNMJLAgMBAAGj
ezB5MAkGA1UdEwQCMAAwLAYJYIZIAYb4QgENBB8WHU9wZW5TU0wgR2VuZXJhdGVk
IENlcnRpZmljYXRlMB0GA1UdDgQWBBQU6UHdLpxxqyxjT7Hxs3XlhQ5GBjAfBgNV
HSMEGDAWgBRR0HZ86V3+uWNtcVHePHCJLJ6SLjANBgkqhkiG9w0BAQUFAAOBgQBo
yL9qC0Qlj6/sDQFdW4hXNdpOG1PCscSgeRJ2cQ+cxrcl+e/UzLq0s194tnd8BF7k
DubIZ29L9J/Dx9DR+2rDORbk2TePBMgDgP2o3KNC6LgdxVkGRBd07oTpjF7jBcul
EqrzTlyFJGjMO668nevxFjStKQRJ8w/4VyTiMAhpLw==
-----END CERTIFICATE-----
