Certificate:
    Data:
        Version: 3 (0x2)
        Serial Number:
            f9:3c:87:54:7f:85:13:ee
        Signature Algorithm: sha1WithRSAEncryption
        Issuer: C=MX, ST=DF, O=Koitoercorp, OU=KoitoerUnit, CN=koitoer/emailAddress=koitoer.server@gmail.com
        Validity
            Not Before: Apr 23 01:41:44 2009 GMT
            Not After : Apr 23 01:41:44 2010 GMT
        Subject: C=MX, ST=DF, L=MX, O=Servidor SSL, OU=SSLServer, CN=ssl_server/emailAddress=koitoer.ssl.server@gmail.com
        Subject Public Key Info:
            Public Key Algorithm: rsaEncryption
            RSA Public Key: (1024 bit)
                Modulus (1024 bit):
                    00:b6:71:73:f2:50:82:b9:62:40:e5:90:fe:eb:fb:
                    21:1b:c5:92:4d:8a:92:10:57:9a:d6:b0:e1:d9:23:
                    5b:86:5d:d8:6a:0a:0b:62:70:ef:ba:42:6a:05:12:
                    e0:1b:5e:75:97:57:9f:2d:7a:c5:55:60:ec:85:3c:
                    56:de:b0:af:9a:60:0f:3b:25:a8:70:22:7b:29:d3:
                    ef:68:f4:99:cd:82:bd:e0:ef:6b:07:54:89:62:5b:
                    1b:52:80:35:b6:ef:ea:f0:7c:84:48:82:23:06:f4:
                    d8:cd:87:46:b7:91:5f:4d:cc:66:e2:73:28:e3:00:
                    03:c5:2c:86:ba:1b:7c:27:03
                Exponent: 65537 (0x10001)
        X509v3 extensions:
            X509v3 Basic Constraints: 
                CA:FALSE
            Netscape Comment: 
                OpenSSL Generated Certificate
            X509v3 Subject Key Identifier: 
                77:06:85:C0:49:75:0A:C2:F1:84:A9:DD:FD:79:E8:5C:E6:E1:B9:39
            X509v3 Authority Key Identifier: 
                keyid:51:D0:76:7C:E9:5D:FE:B9:63:6D:71:51:DE:3C:70:89:2C:9E:92:2E

    Signature Algorithm: sha1WithRSAEncryption
        44:4c:ca:ca:f2:7d:f7:ec:31:50:b0:91:e4:33:07:cf:40:f2:
        a0:40:6e:73:1f:52:96:b3:42:a1:36:8e:67:27:c4:f2:3c:fd:
        34:8f:da:f3:7f:65:28:5d:b5:dc:00:9d:48:43:7c:ee:fa:2c:
        fd:d2:2b:01:a0:9b:cf:f0:fd:2a:e1:29:e1:d6:66:9a:63:e8:
        32:5a:be:4b:a0:5c:3f:94:b7:9f:ad:22:3c:fa:02:34:3c:9b:
        3e:d7:6a:39:e4:5e:9d:75:de:c7:70:2b:31:9f:a9:12:52:48:
        4e:fd:7b:95:e8:ac:6d:d5:c6:f2:6b:17:2e:09:4f:c5:3a:a2:
        fd:75
-----BEGIN CERTIFICATE-----
MIIDEDCCAnmgAwIBAgIJAPk8h1R/hRPuMA0GCSqGSIb3DQEBBQUAMIGBMQswCQYD
VQQGEwJNWDELMAkGA1UECBMCREYxFDASBgNVBAoTC0tvaXRvZXJjb3JwMRQwEgYD
VQQLEwtLb2l0b2VyVW5pdDEQMA4GA1UEAxMHa29pdG9lcjEnMCUGCSqGSIb3DQEJ
ARYYa29pdG9lci5zZXJ2ZXJAZ21haWwuY29tMB4XDTA5MDQyMzAxNDE0NFoXDTEw
MDQyMzAxNDE0NFowgZQxCzAJBgNVBAYTAk1YMQswCQYDVQQIEwJERjELMAkGA1UE
BxMCTVgxFTATBgNVBAoTDFNlcnZpZG9yIFNTTDESMBAGA1UECxMJU1NMU2VydmVy
MRMwEQYDVQQDDApzc2xfc2VydmVyMSswKQYJKoZIhvcNAQkBFhxrb2l0b2VyLnNz
bC5zZXJ2ZXJAZ21haWwuY29tMIGfMA0GCSqGSIb3DQEBAQUAA4GNADCBiQKBgQC2
cXPyUIK5YkDlkP7r+yEbxZJNipIQV5rWsOHZI1uGXdhqCgticO+6QmoFEuAbXnWX
V58tesVVYOyFPFbesK+aYA87JahwInsp0+9o9JnNgr3g72sHVIliWxtSgDW27+rw
fIRIgiMG9NjNh0a3kV9NzGbicyjjAAPFLIa6G3wnAwIDAQABo3sweTAJBgNVHRME
AjAAMCwGCWCGSAGG+EIBDQQfFh1PcGVuU1NMIEdlbmVyYXRlZCBDZXJ0aWZpY2F0
ZTAdBgNVHQ4EFgQUdwaFwEl1CsLxhKnd/XnoXObhuTkwHwYDVR0jBBgwFoAUUdB2
fOld/rljbXFR3jxwiSyeki4wDQYJKoZIhvcNAQEFBQADgYEAREzKyvJ99+wxULCR
5DMHz0DyoEBucx9SlrNCoTaOZyfE8jz9NI/a839lKF213ACdSEN87vos/dIrAaCb
z/D9KuEp4dZmmmPoMlq+S6BcP5S3n60iPPoCNDybPtdqOeRenXXex3ArMZ+pElJI
Tv17leisbdXG8msXLglPxTqi/XU=
-----END CERTIFICATE-----
