Certificate:
    Data:
        Version: 3 (0x2)
        Serial Number: 109 (0x6d)
        Signature Algorithm: sha1WithRSAEncryption
        Issuer: C=MX, ST=Queretaro, O=GFSS, OU=Altec Mexico, CN=Seguridad Informatica
        Validity
            Not Before: Oct  8 08:09:35 2008 GMT
            Not After : Oct  7 08:09:35 2013 GMT
        Subject: C=MX, ST=Queretaro, L=Queretaro, O=GFSS, OU=Altec Mexico, CN=serv
        Subject Public Key Info:
            Public Key Algorithm: rsaEncryption
            RSA Public Key: (1024 bit)
                Modulus (1024 bit):
                    00:b8:58:e5:b2:a9:5d:58:a9:e8:2a:65:5b:f3:1f:
                    b1:f4:95:81:a6:f9:56:28:f8:7a:f7:07:fc:db:da:
                    dd:b1:b7:91:83:86:90:61:47:48:68:ba:44:94:3f:
                    d2:33:48:ef:4c:11:54:93:14:04:a6:d9:a6:20:14:
                    85:a7:81:27:b1:0d:6b:ee:11:59:38:44:9c:e2:97:
                    ca:66:49:86:c4:aa:d0:3b:66:d4:58:84:83:21:1d:
                    8c:ae:45:26:d5:63:09:07:d9:81:e4:af:29:5e:cc:
                    8d:f6:ab:23:04:4e:36:c7:e3:ba:0f:a2:25:79:75:
                    71:c1:b2:a2:c0:f2:f7:c0:d7
                Exponent: 65537 (0x10001)
        X509v3 extensions:
            X509v3 Basic Constraints: 
                CA:FALSE
            Netscape Comment: 
                Seguridad Ingenieria y Proyectos
            X509v3 Subject Key Identifier: 
                58:90:81:24:14:31:80:89:0B:E3:07:8C:84:7E:85:10:F5:71:32:4B
            X509v3 Authority Key Identifier: 
                keyid:67:0A:F9:3A:4F:0F:90:76:11:62:DD:A1:6D:03:8B:BA:FC:39:F0:81

    Signature Algorithm: sha1WithRSAEncryption
        8f:2c:52:af:b3:e0:92:0a:c1:ff:14:cb:8c:a9:1c:2f:1e:08:
        17:23:93:f0:59:f8:67:6f:88:27:ab:ec:c6:0f:66:f4:c1:4d:
        57:f1:8c:5e:c0:1e:f4:6b:8c:81:b7:de:20:fa:67:2f:2b:bc:
        0a:9e:11:64:07:26:af:c5:42:66:c2:b4:2f:4f:07:0f:a2:5b:
        8b:b0:72:a9:37:4e:26:26:73:9e:bf:67:a0:77:7c:bf:17:22:
        4e:42:41:65:bd:47:3f:7d:21:39:f3:1e:cb:ed:89:e9:46:70:
        d9:2b:64:24:0a:91:7b:ae:8f:6a:2a:2e:87:c6:28:35:34:29:
        ac:28
-----BEGIN CERTIFICATE-----
MIICxTCCAi6gAwIBAgIBbTANBgkqhkiG9w0BAQUFADBnMQswCQYDVQQGEwJNWDES
MBAGA1UECBMJUXVlcmV0YXJvMQ0wCwYDVQQKEwRHRlNTMRUwEwYDVQQLEwxBbHRl
YyBNZXhpY28xHjAcBgNVBAMTFVNlZ3VyaWRhZCBJbmZvcm1hdGljYTAeFw0wODEw
MDgwODA5MzVaFw0xMzEwMDcwODA5MzVaMGoxCzAJBgNVBAYTAk1YMRIwEAYDVQQI
EwlRdWVyZXRhcm8xEjAQBgNVBAcTCVF1ZXJldGFybzENMAsGA1UEChMER0ZTUzEV
MBMGA1UECxMMQWx0ZWMgTWV4aWNvMQ0wCwYDVQQDEwRzZXJ2MIGfMA0GCSqGSIb3
DQEBAQUAA4GNADCBiQKBgQC4WOWyqV1YqegqZVvzH7H0lYGm+VYo+Hr3B/zb2t2x
t5GDhpBhR0houkSUP9IzSO9MEVSTFASm2aYgFIWngSexDWvuEVk4RJzil8pmSYbE
qtA7ZtRYhIMhHYyuRSbVYwkH2YHkrylezI32qyMETjbH47oPoiV5dXHBsqLA8vfA
1wIDAQABo34wfDAJBgNVHRMEAjAAMC8GCWCGSAGG+EIBDQQiFiBTZWd1cmlkYWQg
SW5nZW5pZXJpYSB5IFByb3llY3RvczAdBgNVHQ4EFgQUWJCBJBQxgIkL4weMhH6F
EPVxMkswHwYDVR0jBBgwFoAUZwr5Ok8PkHYRYt2hbQOLuvw58IEwDQYJKoZIhvcN
AQEFBQADgYEAjyxSr7PgkgrB/xTLjKkcLx4IFyOT8Fn4Z2+IJ6vsxg9m9MFNV/GM
XsAe9GuMgbfeIPpnLyu8Cp4RZAcmr8VCZsK0L08HD6Jbi7ByqTdOJiZznr9noHd8
vxciTkJBZb1HP30hOfMey+2J6UZw2StkJAqRe66Paiouh8YoNTQprCg=
-----END CERTIFICATE-----
