Certificate:
    Data:
        Version: 3 (0x2)
        Serial Number: 108 (0x6c)
        Signature Algorithm: sha1WithRSAEncryption
        Issuer: C=MX, ST=Queretaro, O=GFSS, OU=Altec Mexico, CN=Seguridad Informatica
        Validity
            Not Before: Oct  8 08:07:18 2008 GMT
            Not After : Oct  7 08:07:18 2013 GMT
        Subject: C=MX, ST=Queretaro, L=Queretaro, O=GFSS, OU=Altec Mexico, CN=two
        Subject Public Key Info:
            Public Key Algorithm: rsaEncryption
            RSA Public Key: (1024 bit)
                Modulus (1024 bit):
                    00:c4:cf:4d:0f:20:91:4e:15:30:be:54:7f:64:d7:
                    46:92:24:ee:f0:34:14:74:f2:72:fb:56:61:ae:b6:
                    72:9a:ce:18:58:1e:de:7b:a6:3b:0c:2c:7c:ab:1a:
                    cb:c0:4a:60:75:b8:8a:f3:2e:2f:0f:0f:60:01:13:
                    2a:c9:09:22:d5:9c:a1:55:d3:49:aa:6a:f4:a4:27:
                    84:5c:ab:65:08:f1:34:b4:40:d0:41:95:aa:68:71:
                    67:7f:1a:cc:47:ed:b0:48:e1:db:66:95:1a:c8:7a:
                    44:52:b2:05:c4:34:22:a5:66:83:27:d1:54:32:40:
                    e8:6f:0f:55:eb:86:5f:d5:35
                Exponent: 65537 (0x10001)
        X509v3 extensions:
            X509v3 Basic Constraints: 
                CA:FALSE
            Netscape Comment: 
                Seguridad Ingenieria y Proyectos
            X509v3 Subject Key Identifier: 
                3D:A9:E5:8B:60:E1:F6:41:4E:37:4C:2B:0B:95:92:C3:DE:C6:C6:2E
            X509v3 Authority Key Identifier: 
                keyid:67:0A:F9:3A:4F:0F:90:76:11:62:DD:A1:6D:03:8B:BA:FC:39:F0:81

    Signature Algorithm: sha1WithRSAEncryption
        a7:51:34:25:29:e3:9a:be:85:34:29:3d:db:92:32:1d:ac:46:
        14:ff:07:d2:19:c7:e6:d0:02:55:f7:d5:7e:e1:c8:51:fe:2c:
        c6:8f:23:ed:81:ac:9f:c7:1e:3e:bd:a4:d0:1d:2b:55:3c:5d:
        4d:57:12:b9:31:36:5f:16:65:da:da:a2:82:6a:3a:10:c8:68:
        63:3f:98:79:81:35:21:0b:11:74:06:ee:b9:7a:33:e1:fe:96:
        30:b0:48:34:ff:69:4b:77:52:fa:67:3c:b7:1b:bd:75:5f:07:
        86:19:92:90:37:31:49:7f:77:23:df:68:5a:80:7e:91:71:4f:
        85:9a
-----BEGIN CERTIFICATE-----
MIICxDCCAi2gAwIBAgIBbDANBgkqhkiG9w0BAQUFADBnMQswCQYDVQQGEwJNWDES
MBAGA1UECBMJUXVlcmV0YXJvMQ0wCwYDVQQKEwRHRlNTMRUwEwYDVQQLEwxBbHRl
YyBNZXhpY28xHjAcBgNVBAMTFVNlZ3VyaWRhZCBJbmZvcm1hdGljYTAeFw0wODEw
MDgwODA3MThaFw0xMzEwMDcwODA3MThaMGkxCzAJBgNVBAYTAk1YMRIwEAYDVQQI
EwlRdWVyZXRhcm8xEjAQBgNVBAcTCVF1ZXJldGFybzENMAsGA1UEChMER0ZTUzEV
MBMGA1UECxMMQWx0ZWMgTWV4aWNvMQwwCgYDVQQDEwN0d28wgZ8wDQYJKoZIhvcN
AQEBBQADgY0AMIGJAoGBAMTPTQ8gkU4VML5Uf2TXRpIk7vA0FHTycvtWYa62cprO
GFge3numOwwsfKsay8BKYHW4ivMuLw8PYAETKskJItWcoVXTSapq9KQnhFyrZQjx
NLRA0EGVqmhxZ38azEftsEjh22aVGsh6RFKyBcQ0IqVmgyfRVDJA6G8PVeuGX9U1
AgMBAAGjfjB8MAkGA1UdEwQCMAAwLwYJYIZIAYb4QgENBCIWIFNlZ3VyaWRhZCBJ
bmdlbmllcmlhIHkgUHJveWVjdG9zMB0GA1UdDgQWBBQ9qeWLYOH2QU43TCsLlZLD
3sbGLjAfBgNVHSMEGDAWgBRnCvk6Tw+QdhFi3aFtA4u6/DnwgTANBgkqhkiG9w0B
AQUFAAOBgQCnUTQlKeOavoU0KT3bkjIdrEYU/wfSGcfm0AJV99V+4chR/izGjyPt
gayfxx4+vaTQHStVPF1NVxK5MTZfFmXa2qKCajoQyGhjP5h5gTUhCxF0Bu65ejPh
/pYwsEg0/2lLd1L6Zzy3G711XweGGZKQNzFJf3cj32hagH6RcU+Fmg==
-----END CERTIFICATE-----
